; Function Attrs: mustprogress nounwind uwtable
define hidden void @_ZN17SaveLiveRegisters16gp_register_saveE8Register(ptr nocapture noundef nonnull align 8 dereferenceable(88) %0, i32 %1) local_unnamed_addr #0 align 2 {
  %3 = alloca %class.Address, align 16
  %4 = getelementptr inbounds i8, ptr %0, i64 84
  %5 = load i32, ptr %4, align 4
  %6 = add nsw i32 %5, -8
  store i32 %6, ptr %4, align 4
  %7 = load ptr, ptr %0, align 8
  store <4 x i32> <i32 4, i32 -1, i32 -1, i32 -1>, ptr %3, align 16
  %8 = getelementptr inbounds i8, ptr %3, i64 16
  store i32 %6, ptr %8, align 16
  %9 = getelementptr inbounds i8, ptr %3, i64 20
  store i8 0, ptr %9, align 4
  %10 = getelementptr inbounds i8, ptr %3, i64 24
  store ptr getelementptr inbounds inrange(-16, 72) (i8, ptr @_ZTV10Relocation, i64 16), ptr %10, align 8
  %11 = getelementptr inbounds i8, ptr %3, i64 32
  store ptr null, ptr %11, align 16
  %12 = getelementptr inbounds i8, ptr %3, i64 40
  store i32 0, ptr %12, align 8
  call void @_ZN9Assembler4movqE7Address8Register(ptr noundef nonnull align 8 dereferenceable(40) %7, ptr noundef nonnull %3, i32 %1) #12
  ret void
}